target datalayout = "e-m:e-p270:32:32-p271:32:32-p272:64:64-i64:64-i128:128-f80:128-n8:16:32:64-S128"
target triple = "x86_64-pc-linux-gnu"

%"class.rocksdb::SeqnoToTimeMapping" = type <{ i64, i64, %"class.std::deque", i8, [7 x i8] }>
%"class.std::deque" = type { %"class.std::_Deque_base" }
%"class.std::_Deque_base" = type { %"struct.std::_Deque_base<rocksdb::SeqnoToTimeMapping::SeqnoTimePair, std::allocator<rocksdb::SeqnoToTimeMapping::SeqnoTimePair>>::_Deque_impl" }
%"struct.std::_Deque_base<rocksdb::SeqnoToTimeMapping::SeqnoTimePair, std::allocator<rocksdb::SeqnoToTimeMapping::SeqnoTimePair>>::_Deque_impl" = type { %"struct.std::_Deque_base<rocksdb::SeqnoToTimeMapping::SeqnoTimePair, std::allocator<rocksdb::SeqnoToTimeMapping::SeqnoTimePair>>::_Deque_impl_data" }
%"struct.std::_Deque_base<rocksdb::SeqnoToTimeMapping::SeqnoTimePair, std::allocator<rocksdb::SeqnoToTimeMapping::SeqnoTimePair>>::_Deque_impl_data" = type { ptr, i64, %"struct.std::_Deque_iterator.3", %"struct.std::_Deque_iterator.3" }
%"struct.std::_Deque_iterator.3" = type { ptr, ptr, ptr, ptr }

; Function Attrs: mustprogress nounwind uwtable
define noundef nonnull align 8 dereferenceable(97) ptr @_ZN7rocksdb18SeqnoToTimeMapping14SetMaxTimeSpanEm(ptr noundef nonnull align 8 dereferenceable(97) %0, i64 noundef %1) #3 align 2 {
  %3 = alloca ptr, align 8
  %4 = alloca i64, align 8
  store ptr %0, ptr %3, align 8, !tbaa !23
  store i64 %1, ptr %4, align 8, !tbaa !4
  %5 = load ptr, ptr %3, align 8
  %6 = load i64, ptr %4, align 8, !tbaa !4
  %7 = getelementptr inbounds nuw %"class.rocksdb::SeqnoToTimeMapping", ptr %5, i32 0, i32 0
  store i64 %6, ptr %7, align 8, !tbaa !46
  %8 = getelementptr inbounds nuw %"class.rocksdb::SeqnoToTimeMapping", ptr %5, i32 0, i32 3
  %9 = load i8, ptr %8, align 8, !tbaa !83, !range !60, !noundef !61
  %10 = trunc i8 %9 to i1
  br i1 %10, label %11, label %12

11:                                               ; preds = %2
  call void @_ZN7rocksdb18SeqnoToTimeMapping18EnforceMaxTimeSpanEm(ptr noundef nonnull align 8 dereferenceable(97) %5, i64 noundef 0)
  br label %12

12:                                               ; preds = %11, %2
  ret ptr %5
}