; Function Attrs: mustprogress nounwind uwtable
define noundef nonnull align 8 dereferenceable(97) ptr @_ZN7rocksdb18SeqnoToTimeMapping14SetMaxTimeSpanEm(ptr noundef nonnull returned align 8 dereferenceable(97) initializes((0, 8)) %0, i64 noundef %1) local_unnamed_addr #1 align 2 {
  store i64 %1, ptr %0, align 8, !tbaa !127
  %3 = getelementptr inbounds nuw i8, ptr %0, i64 96
  %4 = load i8, ptr %3, align 8, !tbaa !233, !range !234, !noundef !235
  %5 = trunc nuw i8 %4 to i1
  br i1 %5, label %6, label %7

6:                                                ; preds = %2
  tail call void @_ZN7rocksdb18SeqnoToTimeMapping18EnforceMaxTimeSpanEm(ptr noundef nonnull align 8 dereferenceable(97) %0, i64 noundef 0)
  br label %7

7:                                                ; preds = %6, %2
  ret ptr %0
}